(dp0
Vengine
p1
Vpdflatex
p2
sVpackages
p3
c__builtin__
set
p4
((lp5
Vhyperref
p6
aVamsmath
p7
aVlistings
p8
aVcolor
p9
aVamssymb
p10
aVlongtable
p11
atp12
Rp13
sVfiles_with_guttermarks
p14
g4
((lp15
V/Users/awangga/Public/panduanproyek/./section/chapter5.tex
p16
aV/Users/awangga/Public/panduanproyek/section/chapter5.tex
p17
aV/Users/awangga/Public/panduanproyek/section/chapter4.tex
p18
aS'PPEA.tex'
p19
atp20
Rp21
sVsynctex
p22
I01
s.